target datalayout = "e-m:e-p270:32:32-p271:32:32-p272:64:64-i64:64-i128:128-f80:128-n8:16:32:64-S128"
target triple = "x86_64-pc-linux-gnu"

%struct._packet_info = type { ptr, ptr, i32, i32, %struct.nstime_t, %struct.nstime_t, %struct.nstime_t, i8, ptr, ptr, ptr, ptr, %struct._address, %struct._address, %struct._address, %struct._address, %struct._address, %struct._address, i32, ptr, i8, [3 x i8], %struct.anon, i32, i32, i32, i32, ptr, i8, ptr, ptr, i16, i16, i32, i32, i16, i32, i32, ptr, ptr, ptr, i8, i8, i16, i16, i16, i32, i16, i16, ptr, ptr, ptr, ptr, ptr, i32, i32 }
%struct.nstime_t = type { i64, i32 }
%struct._address = type { i32, i32, ptr, ptr }
%struct.anon = type { i8, [3 x i8] }

@.str = private unnamed_addr constant [11 x i8] c"Parameters\00", align 1
@hf_ircomm_param = internal global i32 0, align 4
@ett_param = internal global [1024 x i32] zeroinitializer, align 16
@.str.15 = private unnamed_addr constant [17 x i8] c": Service Type (\00", align 1
@.str.16 = private unnamed_addr constant [13 x i8] c", 3-Wire raw\00", align 1
@.str.17 = private unnamed_addr constant [9 x i8] c", 3-Wire\00", align 1
@.str.18 = private unnamed_addr constant [9 x i8] c", 9-Wire\00", align 1
@.str.19 = private unnamed_addr constant [13 x i8] c", Centronics\00", align 1
@.str.20 = private unnamed_addr constant [2 x i8] c")\00", align 1
@.str.21 = private unnamed_addr constant [3 x i8] c"%s\00", align 1
@.str.22 = private unnamed_addr constant [9 x i8] c"unknown)\00", align 1
@.str.23 = private unnamed_addr constant [14 x i8] c": Port Type (\00", align 1
@.str.24 = private unnamed_addr constant [9 x i8] c", serial\00", align 1
@.str.25 = private unnamed_addr constant [11 x i8] c", parallel\00", align 1
@.str.26 = private unnamed_addr constant [19 x i8] c": Port Name (\22%s\22)\00", align 1
@.str.27 = private unnamed_addr constant [10 x i8] c": unknown\00", align 1

; Function Attrs: null_pointer_is_valid sspstrong uwtable
define internal zeroext i1 @dissect_ircomm_parameters(ptr noundef %0, i32 noundef %1, ptr noundef %2, ptr noundef %3, i32 noundef %4, i8 noundef zeroext %5, i8 noundef zeroext %6) #0 {
  %8 = alloca i1, align 1
  %9 = alloca ptr, align 8
  %10 = alloca i32, align 4
  %11 = alloca ptr, align 8
  %12 = alloca ptr, align 8
  %13 = alloca i32, align 4
  %14 = alloca i8, align 1
  %15 = alloca i8, align 1
  %16 = alloca i32, align 4
  %17 = alloca i32, align 4
  %18 = alloca ptr, align 8
  %19 = alloca ptr, align 8
  %20 = alloca [256 x i8], align 16
  %21 = alloca i8, align 1
  %22 = alloca i32, align 4
  %23 = alloca i8, align 1
  store ptr %0, ptr %9, align 8
  store i32 %1, ptr %10, align 4
  store ptr %2, ptr %11, align 8
  store ptr %3, ptr %12, align 8
  store i32 %4, ptr %13, align 4
  store i8 %5, ptr %14, align 1
  store i8 %6, ptr %15, align 1
  call void @llvm.lifetime.start.p0(i64 4, ptr %16) #4
  call void @llvm.lifetime.start.p0(i64 4, ptr %17) #4
  store i32 0, ptr %17, align 4
  call void @llvm.lifetime.start.p0(i64 8, ptr %18) #4
  call void @llvm.lifetime.start.p0(i64 8, ptr %19) #4
  call void @llvm.lifetime.start.p0(i64 256, ptr %20) #4
  call void @llvm.lifetime.start.p0(i64 1, ptr %21) #4
  %24 = load ptr, ptr %9, align 8
  %25 = load ptr, ptr %12, align 8
  %26 = load i32, ptr %10, align 4
  %27 = load i8, ptr %14, align 1
  %28 = call zeroext i1 @check_iap_octet_result(ptr noundef %24, ptr noundef %25, i32 noundef %26, ptr noundef @.str, i8 noundef zeroext %27)
  br i1 %28, label %30, label %29

29:                                               ; preds = %7
  store i1 true, ptr %8, align 1
  store i32 1, ptr %22, align 4
  br label %180

30:                                               ; preds = %7
  %31 = load ptr, ptr %12, align 8
  %32 = icmp ne ptr %31, null
  br i1 %32, label %33, label %179

33:                                               ; preds = %30
  %34 = load ptr, ptr %9, align 8
  %35 = load i32, ptr %10, align 4
  %36 = call zeroext i16 @tvb_get_ntohs(ptr noundef %34, i32 noundef %35)
  %37 = zext i16 %36 to i32
  %38 = load i32, ptr %10, align 4
  %39 = add i32 %37, %38
  %40 = add i32 %39, 2
  store i32 %40, ptr %16, align 4
  %41 = load i32, ptr %10, align 4
  %42 = add i32 %41, 2
  store i32 %42, ptr %10, align 4
  br label %43

43:                                               ; preds = %171, %33
  %44 = load i32, ptr %10, align 4
  %45 = load i32, ptr %16, align 4
  %46 = icmp ult i32 %44, %45
  br i1 %46, label %47, label %178

47:                                               ; preds = %43
  call void @llvm.lifetime.start.p0(i64 1, ptr %23) #4
  %48 = load ptr, ptr %9, align 8
  %49 = load i32, ptr %10, align 4
  %50 = add i32 %49, 1
  %51 = call zeroext i8 @tvb_get_uint8(ptr noundef %48, i32 noundef %50)
  store i8 %51, ptr %23, align 1
  %52 = load ptr, ptr %12, align 8
  %53 = load i32, ptr @hf_ircomm_param, align 4
  %54 = load ptr, ptr %9, align 8
  %55 = load i32, ptr %10, align 4
  %56 = load i8, ptr %23, align 1
  %57 = zext i8 %56 to i32
  %58 = add i32 %57, 2
  %59 = call ptr @proto_tree_add_item(ptr noundef %52, i32 noundef %53, ptr noundef %54, i32 noundef %55, i32 noundef %58, i32 noundef 0)
  store ptr %59, ptr %18, align 8
  %60 = load ptr, ptr %18, align 8
  %61 = load i32, ptr %13, align 4
  %62 = mul i32 %61, 32
  %63 = load i32, ptr %17, align 4
  %64 = add i32 %62, %63
  %65 = zext i32 %64 to i64
  %66 = getelementptr [1024 x i32], ptr @ett_param, i64 0, i64 %65
  %67 = load i32, ptr %66, align 4
  %68 = call ptr @proto_item_add_subtree(ptr noundef %60, i32 noundef %67)
  store ptr %68, ptr %19, align 8
  %69 = getelementptr [256 x i8], ptr %20, i64 0, i64 0
  store i8 0, ptr %69, align 16
  %70 = load ptr, ptr %9, align 8
  %71 = load i32, ptr %10, align 4
  %72 = call zeroext i8 @tvb_get_uint8(ptr noundef %70, i32 noundef %71)
  %73 = zext i8 %72 to i32
  switch i32 %73, label %169 [
    i32 0, label %74
    i32 1, label %124
    i32 2, label %158
  ]

74:                                               ; preds = %47
  %75 = load ptr, ptr %18, align 8
  call void (ptr, ptr, ...) @proto_item_append_text(ptr noundef %75, ptr noundef @.str.15)
  %76 = load ptr, ptr %9, align 8
  %77 = load i32, ptr %10, align 4
  %78 = add i32 %77, 2
  %79 = call zeroext i8 @tvb_get_uint8(ptr noundef %76, i32 noundef %78)
  store i8 %79, ptr %21, align 1
  %80 = load i8, ptr %21, align 1
  %81 = zext i8 %80 to i32
  %82 = and i32 %81, 1
  %83 = icmp ne i32 %82, 0
  br i1 %83, label %84, label %87

84:                                               ; preds = %74
  %85 = getelementptr inbounds [256 x i8], ptr %20, i64 0, i64 0
  %86 = call i64 @g_strlcat(ptr noundef %85, ptr noundef @.str.16, i64 noundef 256)
  br label %87

87:                                               ; preds = %84, %74
  %88 = load i8, ptr %21, align 1
  %89 = zext i8 %88 to i32
  %90 = and i32 %89, 2
  %91 = icmp ne i32 %90, 0
  br i1 %91, label %92, label %95

92:                                               ; preds = %87
  %93 = getelementptr inbounds [256 x i8], ptr %20, i64 0, i64 0
  %94 = call i64 @g_strlcat(ptr noundef %93, ptr noundef @.str.17, i64 noundef 256)
  br label %95

95:                                               ; preds = %92, %87
  %96 = load i8, ptr %21, align 1
  %97 = zext i8 %96 to i32
  %98 = and i32 %97, 4
  %99 = icmp ne i32 %98, 0
  br i1 %99, label %100, label %103

100:                                              ; preds = %95
  %101 = getelementptr inbounds [256 x i8], ptr %20, i64 0, i64 0
  %102 = call i64 @g_strlcat(ptr noundef %101, ptr noundef @.str.18, i64 noundef 256)
  br label %103

103:                                              ; preds = %100, %95
  %104 = load i8, ptr %21, align 1
  %105 = zext i8 %104 to i32
  %106 = and i32 %105, 8
  %107 = icmp ne i32 %106, 0
  br i1 %107, label %108, label %111

108:                                              ; preds = %103
  %109 = getelementptr inbounds [256 x i8], ptr %20, i64 0, i64 0
  %110 = call i64 @g_strlcat(ptr noundef %109, ptr noundef @.str.19, i64 noundef 256)
  br label %111

111:                                              ; preds = %108, %103
  %112 = getelementptr inbounds [256 x i8], ptr %20, i64 0, i64 0
  %113 = call i64 @g_strlcat(ptr noundef %112, ptr noundef @.str.20, i64 noundef 256)
  %114 = getelementptr inbounds [256 x i8], ptr %20, i64 0, i64 0
  %115 = call i64 @strlen(ptr noundef %114) #5
  %116 = icmp ugt i64 %115, 2
  br i1 %116, label %117, label %121

117:                                              ; preds = %111
  %118 = load ptr, ptr %18, align 8
  %119 = getelementptr inbounds [256 x i8], ptr %20, i64 0, i64 0
  %120 = getelementptr i8, ptr %119, i64 2
  call void (ptr, ptr, ...) @proto_item_append_text(ptr noundef %118, ptr noundef @.str.21, ptr noundef %120)
  br label %123

121:                                              ; preds = %111
  %122 = load ptr, ptr %18, align 8
  call void (ptr, ptr, ...) @proto_item_append_text(ptr noundef %122, ptr noundef @.str.22)
  br label %123

123:                                              ; preds = %121, %117
  br label %171

124:                                              ; preds = %47
  %125 = load ptr, ptr %18, align 8
  call void (ptr, ptr, ...) @proto_item_append_text(ptr noundef %125, ptr noundef @.str.23)
  %126 = load ptr, ptr %9, align 8
  %127 = load i32, ptr %10, align 4
  %128 = add i32 %127, 2
  %129 = call zeroext i8 @tvb_get_uint8(ptr noundef %126, i32 noundef %128)
  store i8 %129, ptr %21, align 1
  %130 = load i8, ptr %21, align 1
  %131 = zext i8 %130 to i32
  %132 = and i32 %131, 1
  %133 = icmp ne i32 %132, 0
  br i1 %133, label %134, label %137

134:                                              ; preds = %124
  %135 = getelementptr inbounds [256 x i8], ptr %20, i64 0, i64 0
  %136 = call i64 @g_strlcat(ptr noundef %135, ptr noundef @.str.24, i64 noundef 256)
  br label %137

137:                                              ; preds = %134, %124
  %138 = load i8, ptr %21, align 1
  %139 = zext i8 %138 to i32
  %140 = and i32 %139, 2
  %141 = icmp ne i32 %140, 0
  br i1 %141, label %142, label %145

142:                                              ; preds = %137
  %143 = getelementptr inbounds [256 x i8], ptr %20, i64 0, i64 0
  %144 = call i64 @g_strlcat(ptr noundef %143, ptr noundef @.str.25, i64 noundef 256)
  br label %145

145:                                              ; preds = %142, %137
  %146 = getelementptr inbounds [256 x i8], ptr %20, i64 0, i64 0
  %147 = call i64 @g_strlcat(ptr noundef %146, ptr noundef @.str.20, i64 noundef 256)
  %148 = getelementptr inbounds [256 x i8], ptr %20, i64 0, i64 0
  %149 = call i64 @strlen(ptr noundef %148) #5
  %150 = icmp ugt i64 %149, 2
  br i1 %150, label %151, label %155

151:                                              ; preds = %145
  %152 = load ptr, ptr %18, align 8
  %153 = getelementptr inbounds [256 x i8], ptr %20, i64 0, i64 0
  %154 = getelementptr i8, ptr %153, i64 2
  call void (ptr, ptr, ...) @proto_item_append_text(ptr noundef %152, ptr noundef @.str.21, ptr noundef %154)
  br label %157

155:                                              ; preds = %145
  %156 = load ptr, ptr %18, align 8
  call void (ptr, ptr, ...) @proto_item_append_text(ptr noundef %156, ptr noundef @.str.22)
  br label %157

157:                                              ; preds = %155, %151
  br label %171

158:                                              ; preds = %47
  %159 = load ptr, ptr %18, align 8
  %160 = load ptr, ptr %11, align 8
  %161 = getelementptr inbounds nuw %struct._packet_info, ptr %160, i32 0, i32 51
  %162 = load ptr, ptr %161, align 8
  %163 = load ptr, ptr %9, align 8
  %164 = load i32, ptr %10, align 4
  %165 = add i32 %164, 2
  %166 = load i8, ptr %23, align 1
  %167 = zext i8 %166 to i32
  %168 = call ptr @tvb_format_text(ptr noundef %162, ptr noundef %163, i32 noundef %165, i32 noundef %167)
  call void (ptr, ptr, ...) @proto_item_append_text(ptr noundef %159, ptr noundef @.str.26, ptr noundef %168)
  br label %171

169:                                              ; preds = %47
  %170 = load ptr, ptr %18, align 8
  call void (ptr, ptr, ...) @proto_item_append_text(ptr noundef %170, ptr noundef @.str.27)
  br label %171

171:                                              ; preds = %169, %158, %157, %123
  %172 = load ptr, ptr %9, align 8
  %173 = load ptr, ptr %19, align 8
  %174 = load i32, ptr %10, align 4
  %175 = call i32 @dissect_param_tuple(ptr noundef %172, ptr noundef %173, i32 noundef %174)
  store i32 %175, ptr %10, align 4
  %176 = load i32, ptr %17, align 4
  %177 = add i32 %176, 1
  store i32 %177, ptr %17, align 4
  call void @llvm.lifetime.end.p0(i64 1, ptr %23) #4
  br label %43, !llvm.loop !6

178:                                              ; preds = %43
  br label %179

179:                                              ; preds = %178, %30
  store i1 true, ptr %8, align 1
  store i32 1, ptr %22, align 4
  br label %180

180:                                              ; preds = %179, %29
  call void @llvm.lifetime.end.p0(i64 1, ptr %21) #4
  call void @llvm.lifetime.end.p0(i64 256, ptr %20) #4
  call void @llvm.lifetime.end.p0(i64 8, ptr %19) #4
  call void @llvm.lifetime.end.p0(i64 8, ptr %18) #4
  call void @llvm.lifetime.end.p0(i64 4, ptr %17) #4
  call void @llvm.lifetime.end.p0(i64 4, ptr %16) #4
  %181 = load i1, ptr %8, align 1
  ret i1 %181
}