; Function Attrs: null_pointer_is_valid sspstrong uwtable
define internal noundef zeroext i1 @dissect_ircomm_parameters(ptr noundef %0, i32 noundef %1, ptr noundef readonly captures(none) %2, ptr noundef %3, i32 noundef %4, i8 noundef zeroext %5, i8 zeroext %6) #0 {
  %8 = alloca [256 x i8], align 16
  call void @llvm.lifetime.start.p0(i64 256, ptr nonnull %8) #4
  %9 = tail call zeroext i1 @check_iap_octet_result(ptr noundef %0, ptr noundef %3, i32 noundef %1, ptr noundef nonnull @.str, i8 noundef zeroext %5)
  %.not = icmp ne ptr %3, null
  %or.cond.not = and i1 %.not, %9
  br i1 %or.cond.not, label %10, label %.loopexit

10:                                               ; preds = %7
  %11 = tail call zeroext i16 @tvb_get_ntohs(ptr noundef %0, i32 noundef %1)
  %12 = zext i16 %11 to i32
  %13 = add i32 %1, 2
  %14 = add i32 %13, %12
  %15 = icmp ult i32 %13, %14
  br i1 %15, label %.lr.ph, label %.loopexit

.lr.ph:                                           ; preds = %10
  %16 = shl i32 %4, 5
  %17 = getelementptr inbounds nuw i8, ptr %2, i64 408
  %18 = getelementptr inbounds nuw i8, ptr %8, i64 2
  br label %19

19:                                               ; preds = %.lr.ph, %79
  %.04858 = phi i32 [ %13, %.lr.ph ], [ %80, %79 ]
  %.04957 = phi i32 [ 0, %.lr.ph ], [ %81, %79 ]
  %20 = add nuw i32 %.04858, 1
  %21 = call zeroext i8 @tvb_get_uint8(ptr noundef %0, i32 noundef %20)
  %22 = load i32, ptr @hf_ircomm_param, align 4
  %23 = zext i8 %21 to i32
  %24 = add nuw nsw i32 %23, 2
  %25 = call ptr @proto_tree_add_item(ptr noundef nonnull %3, i32 noundef %22, ptr noundef %0, i32 noundef %.04858, i32 noundef %24, i32 noundef 0)
  %26 = add i32 %.04957, %16
  %27 = zext i32 %26 to i64
  %28 = getelementptr [1024 x i32], ptr @ett_param, i64 0, i64 %27
  %29 = load i32, ptr %28, align 4
  %30 = call ptr @proto_item_add_subtree(ptr noundef %25, i32 noundef %29)
  store i8 0, ptr %8, align 16
  %31 = call zeroext i8 @tvb_get_uint8(ptr noundef %0, i32 noundef %.04858)
  switch i8 %31, label %78 [
    i8 0, label %32
    i8 1, label %57
    i8 2, label %74
  ]

32:                                               ; preds = %19
  call void (ptr, ptr, ...) @proto_item_append_text(ptr noundef %25, ptr noundef nonnull @.str.15)
  %33 = add i32 %.04858, 2
  %34 = call zeroext i8 @tvb_get_uint8(ptr noundef %0, i32 noundef %33)
  %35 = zext i8 %34 to i32
  %36 = and i32 %35, 1
  %.not52 = icmp eq i32 %36, 0
  br i1 %.not52, label %39, label %37

37:                                               ; preds = %32
  %38 = call i64 @g_strlcat(ptr noundef nonnull %8, ptr noundef nonnull @.str.16, i64 noundef 256)
  br label %39

39:                                               ; preds = %37, %32
  %40 = and i32 %35, 2
  %.not53 = icmp eq i32 %40, 0
  br i1 %.not53, label %43, label %41

41:                                               ; preds = %39
  %42 = call i64 @g_strlcat(ptr noundef nonnull %8, ptr noundef nonnull @.str.17, i64 noundef 256)
  br label %43

43:                                               ; preds = %41, %39
  %44 = and i32 %35, 4
  %.not54 = icmp eq i32 %44, 0
  br i1 %.not54, label %47, label %45

45:                                               ; preds = %43
  %46 = call i64 @g_strlcat(ptr noundef nonnull %8, ptr noundef nonnull @.str.18, i64 noundef 256)
  br label %47

47:                                               ; preds = %45, %43
  %48 = and i32 %35, 8
  %.not55 = icmp eq i32 %48, 0
  br i1 %.not55, label %51, label %49

49:                                               ; preds = %47
  %50 = call i64 @g_strlcat(ptr noundef nonnull %8, ptr noundef nonnull @.str.19, i64 noundef 256)
  br label %51

51:                                               ; preds = %49, %47
  %52 = call i64 @g_strlcat(ptr noundef nonnull %8, ptr noundef nonnull @.str.20, i64 noundef 256)
  %53 = call i64 @strlen(ptr noundef nonnull dereferenceable(1) %8) #5
  %54 = icmp ugt i64 %53, 2
  br i1 %54, label %55, label %56

55:                                               ; preds = %51
  call void (ptr, ptr, ...) @proto_item_append_text(ptr noundef %25, ptr noundef nonnull @.str.21, ptr noundef nonnull %18)
  br label %79

56:                                               ; preds = %51
  call void (ptr, ptr, ...) @proto_item_append_text(ptr noundef %25, ptr noundef nonnull @.str.22)
  br label %79

57:                                               ; preds = %19
  call void (ptr, ptr, ...) @proto_item_append_text(ptr noundef %25, ptr noundef nonnull @.str.23)
  %58 = add i32 %.04858, 2
  %59 = call zeroext i8 @tvb_get_uint8(ptr noundef %0, i32 noundef %58)
  %60 = zext i8 %59 to i32
  %61 = and i32 %60, 1
  %.not50 = icmp eq i32 %61, 0
  br i1 %.not50, label %64, label %62

62:                                               ; preds = %57
  %63 = call i64 @g_strlcat(ptr noundef nonnull %8, ptr noundef nonnull @.str.24, i64 noundef 256)
  br label %64

64:                                               ; preds = %62, %57
  %65 = and i32 %60, 2
  %.not51 = icmp eq i32 %65, 0
  br i1 %.not51, label %68, label %66

66:                                               ; preds = %64
  %67 = call i64 @g_strlcat(ptr noundef nonnull %8, ptr noundef nonnull @.str.25, i64 noundef 256)
  br label %68

68:                                               ; preds = %66, %64
  %69 = call i64 @g_strlcat(ptr noundef nonnull %8, ptr noundef nonnull @.str.20, i64 noundef 256)
  %70 = call i64 @strlen(ptr noundef nonnull dereferenceable(1) %8) #5
  %71 = icmp ugt i64 %70, 2
  br i1 %71, label %72, label %73

72:                                               ; preds = %68
  call void (ptr, ptr, ...) @proto_item_append_text(ptr noundef %25, ptr noundef nonnull @.str.21, ptr noundef nonnull %18)
  br label %79

73:                                               ; preds = %68
  call void (ptr, ptr, ...) @proto_item_append_text(ptr noundef %25, ptr noundef nonnull @.str.22)
  br label %79

74:                                               ; preds = %19
  %75 = load ptr, ptr %17, align 8
  %76 = add i32 %.04858, 2
  %77 = call ptr @tvb_format_text(ptr noundef %75, ptr noundef %0, i32 noundef %76, i32 noundef %23)
  call void (ptr, ptr, ...) @proto_item_append_text(ptr noundef %25, ptr noundef nonnull @.str.26, ptr noundef %77)
  br label %79

78:                                               ; preds = %19
  call void (ptr, ptr, ...) @proto_item_append_text(ptr noundef %25, ptr noundef nonnull @.str.27)
  br label %79

79:                                               ; preds = %72, %73, %55, %56, %78, %74
  %80 = call i32 @dissect_param_tuple(ptr noundef %0, ptr noundef %30, i32 noundef %.04858)
  %81 = add i32 %.04957, 1
  %82 = icmp ult i32 %80, %14
  br i1 %82, label %19, label %.loopexit, !llvm.loop !6

.loopexit:                                        ; preds = %79, %10, %7
  call void @llvm.lifetime.end.p0(i64 256, ptr nonnull %8) #4
  ret i1 true
}